; Function Attrs: mustprogress uwtable
define internal void @_ZL20DOCTEST_ANON_FUNC_12v() #4 personality ptr @__gxx_personality_v0 {
  %1 = alloca %"class.doctest::String", align 8
  %2 = alloca i64, align 8
  %3 = alloca %"struct.doctest::detail::ResultBuilder", align 8
  %4 = alloca %"class.doctest::String", align 8
  %5 = alloca i32, align 4
  %6 = tail call noundef i64 @_ZN4Luau12editDistanceESt17basic_string_viewIcSt11char_traitsIcEES3_(i64 2, ptr nonnull @.str.48, i64 3, ptr nonnull @.str.49)
  store i64 %6, ptr %2, align 8
  call void @_ZN7doctest6StringC1EPKc(ptr noundef nonnull align 8 dereferenceable(24) %4, ptr noundef nonnull @.str)
  invoke void @_ZN7doctest6detail13ResultBuilderC1ENS_10assertType4EnumEPKciS5_S5_RKNS_6StringE(ptr noundef nonnull align 8 dereferenceable(144) %3, i32 noundef 1034, ptr noundef nonnull @.str.5, i32 noundef 106, ptr noundef nonnull @.str.50, ptr noundef nonnull @.str, ptr noundef nonnull align 8 dereferenceable(24) %4)
          to label %7 unwind label %19

7:                                                ; preds = %0
  call void @_ZN7doctest6StringD1Ev(ptr noundef nonnull align 8 dereferenceable(24) %4) #17
  store i32 2, ptr %5, align 4
  call void @llvm.lifetime.start.p0(i64 24, ptr nonnull %1)
  %8 = icmp ne i64 %6, 2
  %9 = getelementptr inbounds nuw i8, ptr %3, i64 40
  %10 = zext i1 %8 to i8
  store i8 %10, ptr %9, align 8
  br i1 %8, label %16, label %11

11:                                               ; preds = %7
  %12 = invoke noundef ptr @_ZN7doctest17getContextOptionsEv()
          to label %.noexc unwind label %21

.noexc:                                           ; preds = %11
  %13 = getelementptr inbounds nuw i8, ptr %12, i64 108
  %14 = load i8, ptr %13, align 4
  %15 = trunc i8 %14 to i1
  br i1 %15, label %16, label %_ZN7doctest6detail13ResultBuilder13binary_assertILi0EmiEEbRKT0_RKT1_.exit

16:                                               ; preds = %.noexc, %7
  invoke void @_ZN7doctest6detail19stringifyBinaryExprImiEENS_6StringERKT_PKcRKT0_(ptr dead_on_unwind nonnull writable sret(%"class.doctest::String") align 8 %1, ptr noundef nonnull align 8 dereferenceable(8) %2, ptr noundef nonnull @.str.47, ptr noundef nonnull align 4 dereferenceable(4) %5)
          to label %.noexc6 unwind label %21

.noexc6:                                          ; preds = %16
  %17 = getelementptr inbounds nuw i8, ptr %3, i64 72
  %18 = call noundef nonnull align 8 dereferenceable(24) ptr @_ZN7doctest6StringaSEOS0_(ptr noundef nonnull align 8 dereferenceable(24) %17, ptr noundef nonnull align 8 dereferenceable(24) %1) #17
  call void @_ZN7doctest6StringD1Ev(ptr noundef nonnull align 8 dereferenceable(24) %1) #17
  br label %_ZN7doctest6detail13ResultBuilder13binary_assertILi0EmiEEbRKT0_RKT1_.exit

_ZN7doctest6detail13ResultBuilder13binary_assertILi0EmiEEbRKT0_RKT1_.exit: ; preds = %.noexc, %.noexc6
  call void @llvm.lifetime.end.p0(i64 24, ptr nonnull %1)
  br label %26

19:                                               ; preds = %0
  %20 = landingpad { ptr, i32 }
          cleanup
  call void @_ZN7doctest6StringD1Ev(ptr noundef nonnull align 8 dereferenceable(24) %4) #17
  br label %40

21:                                               ; preds = %16, %11
  %22 = landingpad { ptr, i32 }
          catch ptr null
  %23 = extractvalue { ptr, i32 } %22, 0
  %24 = call ptr @__cxa_begin_catch(ptr %23) #17
  invoke void @_ZN7doctest6detail13ResultBuilder18translateExceptionEv(ptr noundef nonnull align 8 dereferenceable(144) %3)
          to label %25 unwind label %30

25:                                               ; preds = %21
  invoke void @__cxa_end_catch()
          to label %26 unwind label %32

26:                                               ; preds = %_ZN7doctest6detail13ResultBuilder13binary_assertILi0EmiEEbRKT0_RKT1_.exit, %25
  %27 = invoke noundef zeroext i1 @_ZN7doctest6detail13ResultBuilder3logEv(ptr noundef nonnull align 8 dereferenceable(144) %3)
          to label %28 unwind label %32

28:                                               ; preds = %26
  br i1 %27, label %29, label %34

29:                                               ; preds = %28
  call void asm sideeffect "int $$3\0A", "~{dirflag},~{fpsr},~{flags}"() #17, !srcloc !8
  br label %34

30:                                               ; preds = %21
  %31 = landingpad { ptr, i32 }
          cleanup
  invoke void @__cxa_end_catch()
          to label %39 unwind label %41

32:                                               ; preds = %34, %26, %25
  %33 = landingpad { ptr, i32 }
          cleanup
  br label %39

34:                                               ; preds = %29, %28
  invoke void @_ZNK7doctest6detail13ResultBuilder5reactEv(ptr noundef nonnull align 8 dereferenceable(144) %3)
          to label %35 unwind label %32

35:                                               ; preds = %34
  %36 = getelementptr inbounds nuw i8, ptr %3, i64 112
  call void @_ZN7doctest6StringD1Ev(ptr noundef nonnull align 8 dereferenceable(25) %36) #17
  %37 = getelementptr inbounds nuw i8, ptr %3, i64 72
  call void @_ZN7doctest6StringD1Ev(ptr noundef nonnull align 8 dereferenceable(24) %37) #17
  %38 = getelementptr inbounds nuw i8, ptr %3, i64 48
  call void @_ZN7doctest6StringD1Ev(ptr noundef nonnull align 8 dereferenceable(24) %38) #17
  ret void

39:                                               ; preds = %30, %32
  %.pn = phi { ptr, i32 } [ %33, %32 ], [ %31, %30 ]
  call void @_ZN7doctest6detail13ResultBuilderD2Ev(ptr noundef nonnull align 8 dereferenceable(144) %3) #17
  br label %40

40:                                               ; preds = %39, %19
  %.pn.pn = phi { ptr, i32 } [ %.pn, %39 ], [ %20, %19 ]
  resume { ptr, i32 } %.pn.pn

41:                                               ; preds = %30
  %42 = landingpad { ptr, i32 }
          catch ptr null
  %43 = extractvalue { ptr, i32 } %42, 0
  call void @__clang_call_terminate(ptr %43) #18
  unreachable
}